; Function Attrs: mustprogress uwtable
define noundef nonnull align 8 dereferenceable(72) ptr @_ZN12colvarmodule18read_objects_stateERNS_13memory_streamE(ptr nocapture noundef nonnull readonly align 8 dereferenceable(616) %0, ptr noundef nonnull returned align 8 dereferenceable(72) %1) local_unnamed_addr #3 align 2 {
  tail call void @_ZN12colvarmodule14increase_depthEv()
  %3 = getelementptr inbounds i8, ptr %0, i64 40
  %4 = load ptr, ptr %3, align 8
  %5 = getelementptr inbounds i8, ptr %0, i64 48
  %6 = load ptr, ptr %5, align 8
  %.not17 = icmp eq ptr %4, %6
  br i1 %.not17, label %._crit_edge, label %.lr.ph

7:                                                ; preds = %.lr.ph
  %8 = getelementptr inbounds i8, ptr %.sroa.012.018, i64 8
  %9 = load ptr, ptr %5, align 8
  %.not = icmp eq ptr %8, %9
  br i1 %.not, label %._crit_edge, label %.lr.ph, !llvm.loop !205

.lr.ph:                                           ; preds = %2, %7
  %.sroa.012.018 = phi ptr [ %8, %7 ], [ %4, %2 ]
  %10 = load ptr, ptr %.sroa.012.018, align 8
  %11 = tail call noundef nonnull align 8 dereferenceable(72) ptr @_ZN6colvar10read_stateERN12colvarmodule13memory_streamE(ptr noundef nonnull align 8 dereferenceable(4624) %10, ptr noundef nonnull align 8 dereferenceable(72) %1)
  %12 = getelementptr inbounds i8, ptr %11, i64 56
  %13 = load i32, ptr %12, align 8
  %14 = icmp eq i32 %13, 0
  br i1 %14, label %7, label %.loopexit

._crit_edge:                                      ; preds = %7, %2
  %15 = getelementptr inbounds i8, ptr %0, i64 160
  %16 = load ptr, ptr %15, align 8
  %17 = getelementptr inbounds i8, ptr %0, i64 168
  %18 = load ptr, ptr %17, align 8
  %.not1519 = icmp eq ptr %16, %18
  br i1 %.not1519, label %._crit_edge23, label %.lr.ph22

19:                                               ; preds = %.lr.ph22
  %20 = getelementptr inbounds i8, ptr %.sroa.08.020, i64 8
  %21 = load ptr, ptr %17, align 8
  %.not15 = icmp eq ptr %20, %21
  br i1 %.not15, label %._crit_edge23, label %.lr.ph22, !llvm.loop !206

.lr.ph22:                                         ; preds = %._crit_edge, %19
  %.sroa.08.020 = phi ptr [ %20, %19 ], [ %16, %._crit_edge ]
  %22 = load ptr, ptr %.sroa.08.020, align 8
  %23 = tail call noundef nonnull align 8 dereferenceable(72) ptr @_ZN10colvarbias10read_stateERN12colvarmodule13memory_streamE(ptr noundef nonnull align 8 dereferenceable(312) %22, ptr noundef nonnull align 8 dereferenceable(72) %1)
  %24 = getelementptr inbounds i8, ptr %23, i64 56
  %25 = load i32, ptr %24, align 8
  %26 = icmp eq i32 %25, 0
  br i1 %26, label %19, label %.loopexit

._crit_edge23:                                    ; preds = %19, %._crit_edge
  tail call void @_ZN12colvarmodule14decrease_depthEv()
  br label %.loopexit

.loopexit:                                        ; preds = %.lr.ph, %.lr.ph22, %._crit_edge23
  ret ptr %1
}